; Function Attrs: mustprogress nofree norecurse nosync nounwind willreturn memory(argmem: write) uwtable
define void @_ZN2pb11CppFeaturesC2EPN6google8protobuf5ArenaE(ptr nocapture noundef nonnull writeonly align 8 dereferenceable(32) %this, ptr noundef %arena) unnamed_addr #4 align 2 personality ptr @__gxx_personality_v0 {
invoke.cont:
  %_internal_metadata_.i.i = getelementptr inbounds i8, ptr %this, i64 8
  %0 = ptrtoint ptr %arena to i64
  store i64 %0, ptr %_internal_metadata_.i.i, align 8
  store ptr getelementptr inbounds ({ [13 x ptr] }, ptr @_ZTVN2pb11CppFeaturesE, i64 0, i32 0, i64 2), ptr %this, align 8
  %arrayinit.cur.i.ptr.i = getelementptr inbounds i8, ptr %this, i64 16
  tail call void @llvm.memset.p0.i64(ptr noundef nonnull align 8 dereferenceable(9) %arrayinit.cur.i.ptr.i, i8 0, i64 9, i1 false)
  ret void
}